target datalayout = "e-m:e-p270:32:32-p271:32:32-p272:64:64-i64:64-i128:128-f80:128-n8:16:32:64-S128"
target triple = "x86_64-pc-linux-gnu"

@.str.4 = private unnamed_addr constant [2 x i8] c"\0A\00", align 1
@.str.5 = private unnamed_addr constant [42 x i8] c"    mutate -list N [options] [selection]\0A\00", align 1
@.str.6 = private unnamed_addr constant [54 x i8] c"Create a list of N mutations using an even sampling.\0A\00", align 1
@.str.7 = private unnamed_addr constant [17 x i8] c"    -o filename\0A\00", align 1
@.str.8 = private unnamed_addr constant [59 x i8] c"        Write list to this file instead of console output\0A\00", align 1
@.str.9 = private unnamed_addr constant [17 x i8] c"    -s filename\0A\00", align 1
@.str.10 = private unnamed_addr constant [80 x i8] c"        Write a list of all src tags found in the design to the specified file\0A\00", align 1
@.str.11 = private unnamed_addr constant [13 x i8] c"    -seed N\0A\00", align 1
@.str.12 = private unnamed_addr constant [42 x i8] c"        RNG seed for selecting mutations\0A\00", align 1
@.str.13 = private unnamed_addr constant [11 x i8] c"    -none\0A\00", align 1
@.str.14 = private unnamed_addr constant [49 x i8] c"        Include a \22none\22 mutation in the output\0A\00", align 1
@.str.15 = private unnamed_addr constant [28 x i8] c"    -ctrl name width value\0A\00", align 1
@.str.16 = private unnamed_addr constant [79 x i8] c"        Add -ctrl options to the output. Use 'value' for first mutation, then\0A\00", align 1
@.str.17 = private unnamed_addr constant [37 x i8] c"        simply count up from there.\0A\00", align 1
@.str.18 = private unnamed_addr constant [16 x i8] c"    -mode name\0A\00", align 1
@.str.19 = private unnamed_addr constant [18 x i8] c"    -module name\0A\00", align 1
@.str.20 = private unnamed_addr constant [16 x i8] c"    -cell name\0A\00", align 1
@.str.21 = private unnamed_addr constant [16 x i8] c"    -port name\0A\00", align 1
@.str.22 = private unnamed_addr constant [18 x i8] c"    -portbit int\0A\00", align 1
@.str.23 = private unnamed_addr constant [18 x i8] c"    -ctrlbit int\0A\00", align 1
@.str.24 = private unnamed_addr constant [16 x i8] c"    -wire name\0A\00", align 1
@.str.25 = private unnamed_addr constant [18 x i8] c"    -wirebit int\0A\00", align 1
@.str.26 = private unnamed_addr constant [17 x i8] c"    -src string\0A\00", align 1
@.str.27 = private unnamed_addr constant [62 x i8] c"        Filter list of mutation candidates to those matching\0A\00", align 1
@.str.28 = private unnamed_addr constant [31 x i8] c"        the given parameters.\0A\00", align 1
@.str.29 = private unnamed_addr constant [21 x i8] c"    -cfg option int\0A\00", align 1
@.str.30 = private unnamed_addr constant [56 x i8] c"        Set a configuration option. Options available:\0A\00", align 1
@.str.31 = private unnamed_addr constant [59 x i8] c"          weight_pq_w weight_pq_b weight_pq_c weight_pq_s\0A\00", align 1
@.str.32 = private unnamed_addr constant [63 x i8] c"          weight_pq_mw weight_pq_mb weight_pq_mc weight_pq_ms\0A\00", align 1
@.str.33 = private unnamed_addr constant [41 x i8] c"          weight_cover pick_cover_prcnt\0A\00", align 1
@.str.34 = private unnamed_addr constant [33 x i8] c"    mutate -mode MODE [options]\0A\00", align 1
@.str.35 = private unnamed_addr constant [27 x i8] c"Apply the given mutation.\0A\00", align 1
@.str.36 = private unnamed_addr constant [77 x i8] c"        Add a control signal with the given name and width. The mutation is\0A\00", align 1
@.str.37 = private unnamed_addr constant [65 x i8] c"        activated if the control signal equals the given value.\0A\00", align 1
@.str.38 = private unnamed_addr constant [64 x i8] c"        Mutation parameters, as generated by 'mutate -list N'.\0A\00", align 1
@.str.39 = private unnamed_addr constant [76 x i8] c"        Ignored. (They are generated by -list for documentation purposes.)\0A\00", align 1

; Function Attrs: mustprogress uwtable
define internal void @_ZN12_GLOBAL__N_110MutatePass4helpEv(ptr noundef nonnull align 8 dereferenceable(104) %0) unnamed_addr #4 align 2 {
  %2 = alloca ptr, align 8
  store ptr %0, ptr %2, align 8, !tbaa !6
  call void (ptr, ...) @_ZN5Yosys3logEPKcz(ptr noundef @.str.4)
  call void (ptr, ...) @_ZN5Yosys3logEPKcz(ptr noundef @.str.5)
  call void (ptr, ...) @_ZN5Yosys3logEPKcz(ptr noundef @.str.4)
  call void (ptr, ...) @_ZN5Yosys3logEPKcz(ptr noundef @.str.6)
  call void (ptr, ...) @_ZN5Yosys3logEPKcz(ptr noundef @.str.4)
  call void (ptr, ...) @_ZN5Yosys3logEPKcz(ptr noundef @.str.7)
  call void (ptr, ...) @_ZN5Yosys3logEPKcz(ptr noundef @.str.8)
  call void (ptr, ...) @_ZN5Yosys3logEPKcz(ptr noundef @.str.4)
  call void (ptr, ...) @_ZN5Yosys3logEPKcz(ptr noundef @.str.9)
  call void (ptr, ...) @_ZN5Yosys3logEPKcz(ptr noundef @.str.10)
  call void (ptr, ...) @_ZN5Yosys3logEPKcz(ptr noundef @.str.4)
  call void (ptr, ...) @_ZN5Yosys3logEPKcz(ptr noundef @.str.11)
  call void (ptr, ...) @_ZN5Yosys3logEPKcz(ptr noundef @.str.12)
  call void (ptr, ...) @_ZN5Yosys3logEPKcz(ptr noundef @.str.4)
  call void (ptr, ...) @_ZN5Yosys3logEPKcz(ptr noundef @.str.13)
  call void (ptr, ...) @_ZN5Yosys3logEPKcz(ptr noundef @.str.14)
  call void (ptr, ...) @_ZN5Yosys3logEPKcz(ptr noundef @.str.4)
  call void (ptr, ...) @_ZN5Yosys3logEPKcz(ptr noundef @.str.15)
  call void (ptr, ...) @_ZN5Yosys3logEPKcz(ptr noundef @.str.16)
  call void (ptr, ...) @_ZN5Yosys3logEPKcz(ptr noundef @.str.17)
  call void (ptr, ...) @_ZN5Yosys3logEPKcz(ptr noundef @.str.4)
  call void (ptr, ...) @_ZN5Yosys3logEPKcz(ptr noundef @.str.18)
  call void (ptr, ...) @_ZN5Yosys3logEPKcz(ptr noundef @.str.19)
  call void (ptr, ...) @_ZN5Yosys3logEPKcz(ptr noundef @.str.20)
  call void (ptr, ...) @_ZN5Yosys3logEPKcz(ptr noundef @.str.21)
  call void (ptr, ...) @_ZN5Yosys3logEPKcz(ptr noundef @.str.22)
  call void (ptr, ...) @_ZN5Yosys3logEPKcz(ptr noundef @.str.23)
  call void (ptr, ...) @_ZN5Yosys3logEPKcz(ptr noundef @.str.24)
  call void (ptr, ...) @_ZN5Yosys3logEPKcz(ptr noundef @.str.25)
  call void (ptr, ...) @_ZN5Yosys3logEPKcz(ptr noundef @.str.26)
  call void (ptr, ...) @_ZN5Yosys3logEPKcz(ptr noundef @.str.27)
  call void (ptr, ...) @_ZN5Yosys3logEPKcz(ptr noundef @.str.28)
  call void (ptr, ...) @_ZN5Yosys3logEPKcz(ptr noundef @.str.4)
  call void (ptr, ...) @_ZN5Yosys3logEPKcz(ptr noundef @.str.29)
  call void (ptr, ...) @_ZN5Yosys3logEPKcz(ptr noundef @.str.30)
  call void (ptr, ...) @_ZN5Yosys3logEPKcz(ptr noundef @.str.31)
  call void (ptr, ...) @_ZN5Yosys3logEPKcz(ptr noundef @.str.32)
  call void (ptr, ...) @_ZN5Yosys3logEPKcz(ptr noundef @.str.33)
  call void (ptr, ...) @_ZN5Yosys3logEPKcz(ptr noundef @.str.4)
  call void (ptr, ...) @_ZN5Yosys3logEPKcz(ptr noundef @.str.4)
  call void (ptr, ...) @_ZN5Yosys3logEPKcz(ptr noundef @.str.34)
  call void (ptr, ...) @_ZN5Yosys3logEPKcz(ptr noundef @.str.4)
  call void (ptr, ...) @_ZN5Yosys3logEPKcz(ptr noundef @.str.35)
  call void (ptr, ...) @_ZN5Yosys3logEPKcz(ptr noundef @.str.4)
  call void (ptr, ...) @_ZN5Yosys3logEPKcz(ptr noundef @.str.15)
  call void (ptr, ...) @_ZN5Yosys3logEPKcz(ptr noundef @.str.36)
  call void (ptr, ...) @_ZN5Yosys3logEPKcz(ptr noundef @.str.37)
  call void (ptr, ...) @_ZN5Yosys3logEPKcz(ptr noundef @.str.4)
  call void (ptr, ...) @_ZN5Yosys3logEPKcz(ptr noundef @.str.19)
  call void (ptr, ...) @_ZN5Yosys3logEPKcz(ptr noundef @.str.20)
  call void (ptr, ...) @_ZN5Yosys3logEPKcz(ptr noundef @.str.21)
  call void (ptr, ...) @_ZN5Yosys3logEPKcz(ptr noundef @.str.22)
  call void (ptr, ...) @_ZN5Yosys3logEPKcz(ptr noundef @.str.23)
  call void (ptr, ...) @_ZN5Yosys3logEPKcz(ptr noundef @.str.38)
  call void (ptr, ...) @_ZN5Yosys3logEPKcz(ptr noundef @.str.4)
  call void (ptr, ...) @_ZN5Yosys3logEPKcz(ptr noundef @.str.24)
  call void (ptr, ...) @_ZN5Yosys3logEPKcz(ptr noundef @.str.25)
  call void (ptr, ...) @_ZN5Yosys3logEPKcz(ptr noundef @.str.26)
  call void (ptr, ...) @_ZN5Yosys3logEPKcz(ptr noundef @.str.39)
  call void (ptr, ...) @_ZN5Yosys3logEPKcz(ptr noundef @.str.4)
  ret void
}